; Function Attrs: nounwind uwtable
define internal i32 @dissect_tcpopt_unknown(ptr noundef %0, ptr readnone captures(none) %1, ptr noundef %2, ptr readnone captures(none) %3) #0 {
  %5 = tail call i32 @tvb_reported_length(ptr noundef %0) #20
  %6 = load i32, ptr @proto_tcp_option_unknown, align 4
  %7 = tail call ptr @proto_tree_add_item(ptr noundef %2, i32 noundef %6, ptr noundef %0, i32 noundef 0, i32 noundef -1, i32 noundef 0) #20
  %8 = load i32, ptr @ett_tcp_unknown_opt, align 4
  %9 = tail call ptr @proto_item_add_subtree(ptr noundef %7, i32 noundef %8) #20
  %10 = load i32, ptr @hf_tcp_option_kind, align 4
  %11 = tail call ptr @proto_tree_add_item(ptr noundef %9, i32 noundef %10, ptr noundef %0, i32 noundef 0, i32 noundef 1, i32 noundef 0) #20
  %12 = load i32, ptr @hf_tcp_option_len, align 4
  %13 = tail call ptr @proto_tree_add_item(ptr noundef %9, i32 noundef %12, ptr noundef %0, i32 noundef 1, i32 noundef 1, i32 noundef 0) #20
  %14 = icmp sgt i32 %5, 2
  br i1 %14, label %15, label %19

15:                                               ; preds = %4
  %16 = load i32, ptr @hf_tcp_option_unknown_payload, align 4
  %17 = add nsw i32 %5, -2
  %18 = tail call ptr @proto_tree_add_item(ptr noundef %9, i32 noundef %16, ptr noundef %0, i32 noundef 2, i32 noundef %17, i32 noundef 0) #20
  br label %19

19:                                               ; preds = %15, %4
  %20 = tail call i32 @tvb_captured_length(ptr noundef %0) #20
  ret i32 %20
}